target datalayout = "e-m:e-p270:32:32-p271:32:32-p272:64:64-i64:64-i128:128-f80:128-n8:16:32:64-S128"
target triple = "x86_64-pc-linux-gnu"

%struct.XML_Memory_Handling_Suite = type { ptr, ptr, ptr }
%struct.XML_ParserStruct = type { ptr, ptr, ptr, %struct.XML_Memory_Handling_Suite, ptr, ptr, ptr, i64, ptr, i64, i8, i32, ptr, ptr, ptr, ptr, ptr, ptr, ptr, ptr, ptr, ptr, ptr, ptr, ptr, ptr, ptr, ptr, ptr, ptr, ptr, ptr, ptr, ptr, ptr, ptr, ptr, ptr, %struct.INIT_ENCODING, ptr, ptr, i8, i8, ptr, ptr, ptr, ptr, %struct.prolog_state, ptr, i32, ptr, ptr, ptr, ptr, ptr, i8, i32, ptr, ptr, ptr, ptr, ptr, ptr, ptr, ptr, ptr, i8, i8, ptr, ptr, ptr, ptr, ptr, ptr, i32, i32, i32, ptr, ptr, i64, i8, %struct.position, %struct.STRING_POOL, %struct.STRING_POOL, ptr, i32, i8, ptr, %struct.XML_ParsingStatus, i8, i8, i32, i64, %struct.accounting, %struct.entity_stats }
%struct.INIT_ENCODING = type { %struct.encoding, ptr }
%struct.encoding = type { [4 x ptr], [2 x ptr], ptr, ptr, ptr, ptr, ptr, ptr, ptr, ptr, ptr, ptr, i32, i8, i8 }
%struct.prolog_state = type { ptr, i32, i32, i32, i32, i32 }
%struct.position = type { i64, i64 }
%struct.STRING_POOL = type { ptr, ptr, ptr, ptr, ptr, ptr }
%struct.XML_ParsingStatus = type { i32, i8 }
%struct.accounting = type { i64, i64, i64, float, i64 }
%struct.entity_stats = type { i32, i32, i32, i64 }

; Function Attrs: nounwind uwtable
define hidden i32 @PyExpat_XML_GetCurrentByteCount(ptr noundef %0) #0 {
  %2 = alloca i32, align 4
  %3 = alloca ptr, align 8
  store ptr %0, ptr %3, align 8, !tbaa !12
  %4 = load ptr, ptr %3, align 8, !tbaa !12
  %5 = icmp eq ptr %4, null
  br i1 %5, label %6, label %7

6:                                                ; preds = %1
  store i32 0, ptr %2, align 4
  br label %29

7:                                                ; preds = %1
  %8 = load ptr, ptr %3, align 8, !tbaa !12
  %9 = getelementptr inbounds nuw %struct.XML_ParserStruct, ptr %8, i32 0, i32 51
  %10 = load ptr, ptr %9, align 8, !tbaa !138
  %11 = icmp ne ptr %10, null
  br i1 %11, label %12, label %28

12:                                               ; preds = %7
  %13 = load ptr, ptr %3, align 8, !tbaa !12
  %14 = getelementptr inbounds nuw %struct.XML_ParserStruct, ptr %13, i32 0, i32 50
  %15 = load ptr, ptr %14, align 8, !tbaa !137
  %16 = icmp ne ptr %15, null
  br i1 %16, label %17, label %28

17:                                               ; preds = %12
  %18 = load ptr, ptr %3, align 8, !tbaa !12
  %19 = getelementptr inbounds nuw %struct.XML_ParserStruct, ptr %18, i32 0, i32 51
  %20 = load ptr, ptr %19, align 8, !tbaa !138
  %21 = load ptr, ptr %3, align 8, !tbaa !12
  %22 = getelementptr inbounds nuw %struct.XML_ParserStruct, ptr %21, i32 0, i32 50
  %23 = load ptr, ptr %22, align 8, !tbaa !137
  %24 = ptrtoint ptr %20 to i64
  %25 = ptrtoint ptr %23 to i64
  %26 = sub i64 %24, %25
  %27 = trunc i64 %26 to i32
  store i32 %27, ptr %2, align 4
  br label %29

28:                                               ; preds = %12, %7
  store i32 0, ptr %2, align 4
  br label %29

29:                                               ; preds = %28, %17, %6
  %30 = load i32, ptr %2, align 4
  ret i32 %30
}